; Function Attrs: nounwind uwtable
define noalias ptr @l_Array_mapMUnsafe_map___at___private_Lean_Elab_Deriving_Nonempty_0__Lean_Elab_mkNonemptyInstance___spec__4___boxed(ptr noundef %0, ptr noundef %1, ptr noundef %2, ptr noundef %3, ptr noundef %4, ptr noundef %5, ptr noundef %6, ptr noundef %7, ptr noundef %8, ptr noundef %9) local_unnamed_addr #0 {
  %11 = getelementptr i8, ptr %0, i64 8
  %.val37 = load i64, ptr %11, align 8, !tbaa !13
  %12 = ptrtoint ptr %0 to i64
  %13 = and i64 %12, 1
  %.not = icmp eq i64 %13, 0
  br i1 %.not, label %14, label %lean_dec.exit24

14:                                               ; preds = %10
  %15 = load i32, ptr %0, align 4, !tbaa !8
  %16 = icmp sgt i32 %15, 1
  br i1 %16, label %17, label %19, !prof !11

17:                                               ; preds = %14
  %18 = add nsw i32 %15, -1
  store i32 %18, ptr %0, align 4, !tbaa !8
  br label %lean_dec.exit24

19:                                               ; preds = %14
  %.not.i = icmp eq i32 %15, 0
  br i1 %.not.i, label %lean_dec.exit24, label %20

20:                                               ; preds = %19
  tail call void @lean_dec_ref_cold(ptr noundef nonnull %0) #5
  br label %lean_dec.exit24

lean_dec.exit24:                                  ; preds = %20, %19, %17, %10
  %21 = getelementptr i8, ptr %1, i64 8
  %.val = load i64, ptr %21, align 8, !tbaa !13
  %22 = ptrtoint ptr %1 to i64
  %23 = and i64 %22, 1
  %.not38 = icmp eq i64 %23, 0
  br i1 %.not38, label %24, label %lean_dec.exit23

24:                                               ; preds = %lean_dec.exit24
  %25 = load i32, ptr %1, align 4, !tbaa !8
  %26 = icmp sgt i32 %25, 1
  br i1 %26, label %27, label %29, !prof !11

27:                                               ; preds = %24
  %28 = add nsw i32 %25, -1
  store i32 %28, ptr %1, align 4, !tbaa !8
  br label %lean_dec.exit23

29:                                               ; preds = %24
  %.not.i25 = icmp eq i32 %25, 0
  br i1 %.not.i25, label %lean_dec.exit23, label %30

30:                                               ; preds = %29
  tail call void @lean_dec_ref_cold(ptr noundef nonnull %1) #5
  br label %lean_dec.exit23

lean_dec.exit23:                                  ; preds = %30, %29, %27, %lean_dec.exit24
  %31 = tail call ptr @l_Array_mapMUnsafe_map___at___private_Lean_Elab_Deriving_Nonempty_0__Lean_Elab_mkNonemptyInstance___spec__4(i64 noundef %.val37, i64 noundef %.val, ptr noundef %2, ptr poison, ptr poison, ptr poison, ptr poison, ptr noundef %7, ptr noundef %8, ptr noundef %9)
  %32 = ptrtoint ptr %8 to i64
  %33 = and i64 %32, 1
  %.not39 = icmp eq i64 %33, 0
  br i1 %.not39, label %34, label %lean_dec.exit22

34:                                               ; preds = %lean_dec.exit23
  %35 = load i32, ptr %8, align 4, !tbaa !8
  %36 = icmp sgt i32 %35, 1
  br i1 %36, label %37, label %39, !prof !11

37:                                               ; preds = %34
  %38 = add nsw i32 %35, -1
  store i32 %38, ptr %8, align 4, !tbaa !8
  br label %lean_dec.exit22

39:                                               ; preds = %34
  %.not.i27 = icmp eq i32 %35, 0
  br i1 %.not.i27, label %lean_dec.exit22, label %40

40:                                               ; preds = %39
  tail call void @lean_dec_ref_cold(ptr noundef nonnull %8) #5
  br label %lean_dec.exit22

lean_dec.exit22:                                  ; preds = %40, %39, %37, %lean_dec.exit23
  %41 = ptrtoint ptr %6 to i64
  %42 = and i64 %41, 1
  %.not40 = icmp eq i64 %42, 0
  br i1 %.not40, label %43, label %lean_dec.exit21

43:                                               ; preds = %lean_dec.exit22
  %44 = load i32, ptr %6, align 4, !tbaa !8
  %45 = icmp sgt i32 %44, 1
  br i1 %45, label %46, label %48, !prof !11

46:                                               ; preds = %43
  %47 = add nsw i32 %44, -1
  store i32 %47, ptr %6, align 4, !tbaa !8
  br label %lean_dec.exit21

48:                                               ; preds = %43
  %.not.i29 = icmp eq i32 %44, 0
  br i1 %.not.i29, label %lean_dec.exit21, label %49

49:                                               ; preds = %48
  tail call void @lean_dec_ref_cold(ptr noundef nonnull %6) #5
  br label %lean_dec.exit21

lean_dec.exit21:                                  ; preds = %49, %48, %46, %lean_dec.exit22
  %50 = ptrtoint ptr %5 to i64
  %51 = and i64 %50, 1
  %.not41 = icmp eq i64 %51, 0
  br i1 %.not41, label %52, label %lean_dec.exit20

52:                                               ; preds = %lean_dec.exit21
  %53 = load i32, ptr %5, align 4, !tbaa !8
  %54 = icmp sgt i32 %53, 1
  br i1 %54, label %55, label %57, !prof !11

55:                                               ; preds = %52
  %56 = add nsw i32 %53, -1
  store i32 %56, ptr %5, align 4, !tbaa !8
  br label %lean_dec.exit20

57:                                               ; preds = %52
  %.not.i31 = icmp eq i32 %53, 0
  br i1 %.not.i31, label %lean_dec.exit20, label %58

58:                                               ; preds = %57
  tail call void @lean_dec_ref_cold(ptr noundef nonnull %5) #5
  br label %lean_dec.exit20

lean_dec.exit20:                                  ; preds = %58, %57, %55, %lean_dec.exit21
  %59 = ptrtoint ptr %4 to i64
  %60 = and i64 %59, 1
  %.not42 = icmp eq i64 %60, 0
  br i1 %.not42, label %61, label %lean_dec.exit19

61:                                               ; preds = %lean_dec.exit20
  %62 = load i32, ptr %4, align 4, !tbaa !8
  %63 = icmp sgt i32 %62, 1
  br i1 %63, label %64, label %66, !prof !11

64:                                               ; preds = %61
  %65 = add nsw i32 %62, -1
  store i32 %65, ptr %4, align 4, !tbaa !8
  br label %lean_dec.exit19

66:                                               ; preds = %61
  %.not.i33 = icmp eq i32 %62, 0
  br i1 %.not.i33, label %lean_dec.exit19, label %67

67:                                               ; preds = %66
  tail call void @lean_dec_ref_cold(ptr noundef nonnull %4) #5
  br label %lean_dec.exit19

lean_dec.exit19:                                  ; preds = %67, %66, %64, %lean_dec.exit20
  %68 = ptrtoint ptr %3 to i64
  %69 = and i64 %68, 1
  %.not43 = icmp eq i64 %69, 0
  br i1 %.not43, label %70, label %lean_dec.exit

70:                                               ; preds = %lean_dec.exit19
  %71 = load i32, ptr %3, align 4, !tbaa !8
  %72 = icmp sgt i32 %71, 1
  br i1 %72, label %73, label %75, !prof !11

73:                                               ; preds = %70
  %74 = add nsw i32 %71, -1
  store i32 %74, ptr %3, align 4, !tbaa !8
  br label %lean_dec.exit

75:                                               ; preds = %70
  %.not.i35 = icmp eq i32 %71, 0
  br i1 %.not.i35, label %lean_dec.exit, label %76

76:                                               ; preds = %75
  tail call void @lean_dec_ref_cold(ptr noundef nonnull %3) #5
  br label %lean_dec.exit

lean_dec.exit:                                    ; preds = %76, %75, %73, %lean_dec.exit19
  ret ptr %31
}